target datalayout = "e-m:e-p270:32:32-p271:32:32-p272:64:64-i64:64-i128:128-f80:128-n8:16:32:64-S128"
target triple = "x86_64-pc-linux-gnu"

%struct.SDL_Mouse = type { ptr, ptr, ptr, ptr, ptr, ptr, ptr, ptr, ptr, ptr, ptr, ptr, ptr, ptr, i8, float, float, ptr, float, float, float, float, float, float, float, float, double, double, i8, i8, i8, i8, i8, i8, i8, i8, i64, i8, float, i8, float, i8, i32, i32, i8, i8, i8, i8, i8, i8, i8, i8, i8, ptr, i32, ptr, ptr, ptr, ptr, i8, ptr }

; Function Attrs: nounwind uwtable
define internal void @SDL_MouseWarpEmulationChanged(ptr noundef %0, ptr noundef %1, ptr noundef %2, ptr noundef %3) #0 {
  %5 = alloca ptr, align 8
  %6 = alloca ptr, align 8
  %7 = alloca ptr, align 8
  %8 = alloca ptr, align 8
  %9 = alloca ptr, align 8
  store ptr %0, ptr %5, align 8
  store ptr %1, ptr %6, align 8
  store ptr %2, ptr %7, align 8
  store ptr %3, ptr %8, align 8
  call void @llvm.lifetime.start.p0(i64 8, ptr %9) #7
  %10 = load ptr, ptr %5, align 8
  store ptr %10, ptr %9, align 8
  %11 = load ptr, ptr %8, align 8
  %12 = call zeroext i1 @SDL_GetStringBoolean(ptr noundef %11, i1 noundef zeroext true)
  %13 = load ptr, ptr %9, align 8
  %14 = getelementptr inbounds nuw %struct.SDL_Mouse, ptr %13, i32 0, i32 33
  %15 = zext i1 %12 to i8
  store i8 %15, ptr %14, align 1
  %16 = load ptr, ptr %9, align 8
  %17 = getelementptr inbounds nuw %struct.SDL_Mouse, ptr %16, i32 0, i32 33
  %18 = load i8, ptr %17, align 1, !range !3, !noundef !4
  %19 = trunc i8 %18 to i1
  br i1 %19, label %29, label %20

20:                                               ; preds = %4
  %21 = load ptr, ptr %9, align 8
  %22 = getelementptr inbounds nuw %struct.SDL_Mouse, ptr %21, i32 0, i32 34
  %23 = load i8, ptr %22, align 2, !range !3, !noundef !4
  %24 = trunc i8 %23 to i1
  br i1 %24, label %25, label %29

25:                                               ; preds = %20
  %26 = call zeroext i1 @SDL_SetRelativeMouseMode(i1 noundef zeroext false)
  %27 = load ptr, ptr %9, align 8
  %28 = getelementptr inbounds nuw %struct.SDL_Mouse, ptr %27, i32 0, i32 34
  store i8 0, ptr %28, align 2
  br label %29

29:                                               ; preds = %25, %20, %4
  call void @llvm.lifetime.end.p0(i64 8, ptr %9) #7
  ret void
}