; Function Attrs: nounwind uwtable
define internal void @SDL_MouseWarpEmulationChanged(ptr noundef captures(none) initializes((189, 190)) %0, ptr readnone captures(none) %1, ptr readnone captures(none) %2, ptr noundef %3) #0 {
  %5 = tail call zeroext i1 @SDL_GetStringBoolean(ptr noundef %3, i1 noundef zeroext true) #13
  %6 = getelementptr inbounds nuw i8, ptr %0, i64 189
  %7 = zext i1 %5 to i8
  store i8 %7, ptr %6, align 1
  br i1 %5, label %14, label %8

8:                                                ; preds = %4
  %9 = getelementptr inbounds nuw i8, ptr %0, i64 190
  %10 = load i8, ptr %9, align 2, !range !3, !noundef !4
  %11 = trunc nuw i8 %10 to i1
  br i1 %11, label %12, label %14

12:                                               ; preds = %8
  %13 = tail call zeroext i1 @SDL_SetRelativeMouseMode(i1 noundef zeroext false)
  store i8 0, ptr %9, align 2
  br label %14

14:                                               ; preds = %12, %8, %4
  ret void
}